target datalayout = "e-m:e-p270:32:32-p271:32:32-p272:64:64-i64:64-i128:128-f80:128-n8:16:32:64-S128"
target triple = "x86_64-pc-linux-gnu"

%struct.rawSeqStore_t = type { ptr, i64, i64, i64, i64 }
%struct.ZSTD_optLdm_t = type { %struct.rawSeqStore_t, i32, i32, i32 }
%struct.ZSTD_match_t = type { i32, i32 }
%struct.rawSeq = type { i32, i32, i32 }

; Function Attrs: nounwind uwtable
define internal void @ZSTD_optLdm_maybeAddMatch(ptr noundef %0, ptr noundef %1, ptr noundef %2, i32 noundef %3) #0 {
  %5 = alloca ptr, align 8
  %6 = alloca ptr, align 8
  %7 = alloca ptr, align 8
  %8 = alloca i32, align 4
  %9 = alloca i32, align 4
  %10 = alloca i32, align 4
  %11 = alloca i32, align 4
  store ptr %0, ptr %5, align 8
  store ptr %1, ptr %6, align 8
  store ptr %2, ptr %7, align 8
  store i32 %3, ptr %8, align 4
  %12 = load i32, ptr %8, align 4
  %13 = load ptr, ptr %7, align 8
  %14 = getelementptr inbounds %struct.ZSTD_optLdm_t, ptr %13, i32 0, i32 1
  %15 = load i32, ptr %14, align 8
  %16 = sub i32 %12, %15
  store i32 %16, ptr %9, align 4
  %17 = load ptr, ptr %7, align 8
  %18 = getelementptr inbounds %struct.ZSTD_optLdm_t, ptr %17, i32 0, i32 2
  %19 = load i32, ptr %18, align 4
  %20 = load ptr, ptr %7, align 8
  %21 = getelementptr inbounds %struct.ZSTD_optLdm_t, ptr %20, i32 0, i32 1
  %22 = load i32, ptr %21, align 8
  %23 = sub i32 %19, %22
  %24 = load i32, ptr %9, align 4
  %25 = sub i32 %23, %24
  store i32 %25, ptr %10, align 4
  %26 = load i32, ptr %8, align 4
  %27 = load ptr, ptr %7, align 8
  %28 = getelementptr inbounds %struct.ZSTD_optLdm_t, ptr %27, i32 0, i32 1
  %29 = load i32, ptr %28, align 8
  %30 = icmp ult i32 %26, %29
  br i1 %30, label %40, label %31

31:                                               ; preds = %4
  %32 = load i32, ptr %8, align 4
  %33 = load ptr, ptr %7, align 8
  %34 = getelementptr inbounds %struct.ZSTD_optLdm_t, ptr %33, i32 0, i32 2
  %35 = load i32, ptr %34, align 4
  %36 = icmp uge i32 %32, %35
  br i1 %36, label %40, label %37

37:                                               ; preds = %31
  %38 = load i32, ptr %10, align 4
  %39 = icmp ult i32 %38, 3
  br i1 %39, label %40, label %41

40:                                               ; preds = %37, %31, %4
  br label %82

41:                                               ; preds = %37
  %42 = load ptr, ptr %6, align 8
  %43 = load i32, ptr %42, align 4
  %44 = icmp eq i32 %43, 0
  br i1 %44, label %60, label %45

45:                                               ; preds = %41
  %46 = load i32, ptr %10, align 4
  %47 = load ptr, ptr %5, align 8
  %48 = load ptr, ptr %6, align 8
  %49 = load i32, ptr %48, align 4
  %50 = sub i32 %49, 1
  %51 = zext i32 %50 to i64
  %52 = getelementptr inbounds %struct.ZSTD_match_t, ptr %47, i64 %51
  %53 = getelementptr inbounds %struct.ZSTD_match_t, ptr %52, i32 0, i32 1
  %54 = load i32, ptr %53, align 4
  %55 = icmp ugt i32 %46, %54
  br i1 %55, label %56, label %82

56:                                               ; preds = %45
  %57 = load ptr, ptr %6, align 8
  %58 = load i32, ptr %57, align 4
  %59 = icmp ult i32 %58, 4096
  br i1 %59, label %60, label %82

60:                                               ; preds = %56, %41
  %61 = load ptr, ptr %7, align 8
  %62 = getelementptr inbounds %struct.ZSTD_optLdm_t, ptr %61, i32 0, i32 3
  %63 = load i32, ptr %62, align 8
  %64 = add i32 %63, 3
  store i32 %64, ptr %11, align 4
  %65 = load i32, ptr %10, align 4
  %66 = load ptr, ptr %5, align 8
  %67 = load ptr, ptr %6, align 8
  %68 = load i32, ptr %67, align 4
  %69 = zext i32 %68 to i64
  %70 = getelementptr inbounds %struct.ZSTD_match_t, ptr %66, i64 %69
  %71 = getelementptr inbounds %struct.ZSTD_match_t, ptr %70, i32 0, i32 1
  store i32 %65, ptr %71, align 4
  %72 = load i32, ptr %11, align 4
  %73 = load ptr, ptr %5, align 8
  %74 = load ptr, ptr %6, align 8
  %75 = load i32, ptr %74, align 4
  %76 = zext i32 %75 to i64
  %77 = getelementptr inbounds %struct.ZSTD_match_t, ptr %73, i64 %76
  %78 = getelementptr inbounds %struct.ZSTD_match_t, ptr %77, i32 0, i32 0
  store i32 %72, ptr %78, align 4
  %79 = load ptr, ptr %6, align 8
  %80 = load i32, ptr %79, align 4
  %81 = add i32 %80, 1
  store i32 %81, ptr %79, align 4
  br label %82

82:                                               ; preds = %60, %56, %45, %40
  ret void
}

; Function Attrs: nounwind uwtable
define internal void @ZSTD_optLdm_skipRawSeqStoreBytes(ptr noundef %0, i64 noundef %1) #0 {
  %3 = alloca ptr, align 8
  %4 = alloca i64, align 8
  %5 = alloca i32, align 4
  %6 = alloca %struct.rawSeq, align 4
  store ptr %0, ptr %3, align 8
  store i64 %1, ptr %4, align 8
  %7 = load ptr, ptr %3, align 8
  %8 = getelementptr inbounds %struct.rawSeqStore_t, ptr %7, i32 0, i32 2
  %9 = load i64, ptr %8, align 8
  %10 = load i64, ptr %4, align 8
  %11 = add i64 %9, %10
  %12 = trunc i64 %11 to i32
  store i32 %12, ptr %5, align 4
  br label %13

13:                                               ; preds = %58, %2
  %14 = load i32, ptr %5, align 4
  %15 = icmp ne i32 %14, 0
  br i1 %15, label %16, label %24

16:                                               ; preds = %13
  %17 = load ptr, ptr %3, align 8
  %18 = getelementptr inbounds %struct.rawSeqStore_t, ptr %17, i32 0, i32 1
  %19 = load i64, ptr %18, align 8
  %20 = load ptr, ptr %3, align 8
  %21 = getelementptr inbounds %struct.rawSeqStore_t, ptr %20, i32 0, i32 3
  %22 = load i64, ptr %21, align 8
  %23 = icmp ult i64 %19, %22
  br label %24

24:                                               ; preds = %16, %13
  %25 = phi i1 [ false, %13 ], [ %23, %16 ]
  br i1 %25, label %26, label %59

26:                                               ; preds = %24
  %27 = load ptr, ptr %3, align 8
  %28 = getelementptr inbounds %struct.rawSeqStore_t, ptr %27, i32 0, i32 0
  %29 = load ptr, ptr %28, align 8
  %30 = load ptr, ptr %3, align 8
  %31 = getelementptr inbounds %struct.rawSeqStore_t, ptr %30, i32 0, i32 1
  %32 = load i64, ptr %31, align 8
  %33 = getelementptr inbounds %struct.rawSeq, ptr %29, i64 %32
  call void @llvm.memcpy.p0.p0.i64(ptr align 4 %6, ptr align 4 %33, i64 12, i1 false)
  %34 = load i32, ptr %5, align 4
  %35 = getelementptr inbounds %struct.rawSeq, ptr %6, i32 0, i32 1
  %36 = load i32, ptr %35, align 4
  %37 = getelementptr inbounds %struct.rawSeq, ptr %6, i32 0, i32 2
  %38 = load i32, ptr %37, align 4
  %39 = add i32 %36, %38
  %40 = icmp uge i32 %34, %39
  br i1 %40, label %41, label %53

41:                                               ; preds = %26
  %42 = getelementptr inbounds %struct.rawSeq, ptr %6, i32 0, i32 1
  %43 = load i32, ptr %42, align 4
  %44 = getelementptr inbounds %struct.rawSeq, ptr %6, i32 0, i32 2
  %45 = load i32, ptr %44, align 4
  %46 = add i32 %43, %45
  %47 = load i32, ptr %5, align 4
  %48 = sub i32 %47, %46
  store i32 %48, ptr %5, align 4
  %49 = load ptr, ptr %3, align 8
  %50 = getelementptr inbounds %struct.rawSeqStore_t, ptr %49, i32 0, i32 1
  %51 = load i64, ptr %50, align 8
  %52 = add i64 %51, 1
  store i64 %52, ptr %50, align 8
  br label %58

53:                                               ; preds = %26
  %54 = load i32, ptr %5, align 4
  %55 = zext i32 %54 to i64
  %56 = load ptr, ptr %3, align 8
  %57 = getelementptr inbounds %struct.rawSeqStore_t, ptr %56, i32 0, i32 2
  store i64 %55, ptr %57, align 8
  br label %59

58:                                               ; preds = %41
  br label %13, !llvm.loop !33

59:                                               ; preds = %53, %24
  %60 = load i32, ptr %5, align 4
  %61 = icmp eq i32 %60, 0
  br i1 %61, label %70, label %62

62:                                               ; preds = %59
  %63 = load ptr, ptr %3, align 8
  %64 = getelementptr inbounds %struct.rawSeqStore_t, ptr %63, i32 0, i32 1
  %65 = load i64, ptr %64, align 8
  %66 = load ptr, ptr %3, align 8
  %67 = getelementptr inbounds %struct.rawSeqStore_t, ptr %66, i32 0, i32 3
  %68 = load i64, ptr %67, align 8
  %69 = icmp eq i64 %65, %68
  br i1 %69, label %70, label %73

70:                                               ; preds = %62, %59
  %71 = load ptr, ptr %3, align 8
  %72 = getelementptr inbounds %struct.rawSeqStore_t, ptr %71, i32 0, i32 2
  store i64 0, ptr %72, align 8
  br label %73

73:                                               ; preds = %70, %62
  ret void
}

; Function Attrs: nounwind uwtable
define internal void @ZSTD_optLdm_processMatchCandidate(ptr noundef %0, ptr noundef %1, ptr noundef %2, i32 noundef %3, i32 noundef %4) #0 {
  %6 = alloca ptr, align 8
  %7 = alloca ptr, align 8
  %8 = alloca ptr, align 8
  %9 = alloca i32, align 4
  %10 = alloca i32, align 4
  %11 = alloca i32, align 4
  store ptr %0, ptr %6, align 8
  store ptr %1, ptr %7, align 8
  store ptr %2, ptr %8, align 8
  store i32 %3, ptr %9, align 4
  store i32 %4, ptr %10, align 4
  %12 = load ptr, ptr %6, align 8
  %13 = getelementptr inbounds %struct.ZSTD_optLdm_t, ptr %12, i32 0, i32 0
  %14 = getelementptr inbounds %struct.rawSeqStore_t, ptr %13, i32 0, i32 3
  %15 = load i64, ptr %14, align 8
  %16 = icmp eq i64 %15, 0
  br i1 %16, label %27, label %17

17:                                               ; preds = %5
  %18 = load ptr, ptr %6, align 8
  %19 = getelementptr inbounds %struct.ZSTD_optLdm_t, ptr %18, i32 0, i32 0
  %20 = getelementptr inbounds %struct.rawSeqStore_t, ptr %19, i32 0, i32 1
  %21 = load i64, ptr %20, align 8
  %22 = load ptr, ptr %6, align 8
  %23 = getelementptr inbounds %struct.ZSTD_optLdm_t, ptr %22, i32 0, i32 0
  %24 = getelementptr inbounds %struct.rawSeqStore_t, ptr %23, i32 0, i32 3
  %25 = load i64, ptr %24, align 8
  %26 = icmp uge i64 %21, %25
  br i1 %26, label %27, label %28

27:                                               ; preds = %17, %5
  br label %59

28:                                               ; preds = %17
  %29 = load i32, ptr %9, align 4
  %30 = load ptr, ptr %6, align 8
  %31 = getelementptr inbounds %struct.ZSTD_optLdm_t, ptr %30, i32 0, i32 2
  %32 = load i32, ptr %31, align 4
  %33 = icmp uge i32 %29, %32
  br i1 %33, label %34, label %54

34:                                               ; preds = %28
  %35 = load i32, ptr %9, align 4
  %36 = load ptr, ptr %6, align 8
  %37 = getelementptr inbounds %struct.ZSTD_optLdm_t, ptr %36, i32 0, i32 2
  %38 = load i32, ptr %37, align 4
  %39 = icmp ugt i32 %35, %38
  br i1 %39, label %40, label %50

40:                                               ; preds = %34
  %41 = load i32, ptr %9, align 4
  %42 = load ptr, ptr %6, align 8
  %43 = getelementptr inbounds %struct.ZSTD_optLdm_t, ptr %42, i32 0, i32 2
  %44 = load i32, ptr %43, align 4
  %45 = sub i32 %41, %44
  store i32 %45, ptr %11, align 4
  %46 = load ptr, ptr %6, align 8
  %47 = getelementptr inbounds %struct.ZSTD_optLdm_t, ptr %46, i32 0, i32 0
  %48 = load i32, ptr %11, align 4
  %49 = zext i32 %48 to i64
  call void @ZSTD_optLdm_skipRawSeqStoreBytes(ptr noundef %47, i64 noundef %49)
  br label %50

50:                                               ; preds = %40, %34
  %51 = load ptr, ptr %6, align 8
  %52 = load i32, ptr %9, align 4
  %53 = load i32, ptr %10, align 4
  call void @ZSTD_opt_getNextMatchAndUpdateSeqStore(ptr noundef %51, i32 noundef %52, i32 noundef %53)
  br label %54

54:                                               ; preds = %50, %28
  %55 = load ptr, ptr %7, align 8
  %56 = load ptr, ptr %8, align 8
  %57 = load ptr, ptr %6, align 8
  %58 = load i32, ptr %9, align 4
  call void @ZSTD_optLdm_maybeAddMatch(ptr noundef %55, ptr noundef %56, ptr noundef %57, i32 noundef %58)
  br label %59

59:                                               ; preds = %54, %27
  ret void
}