; Function Attrs: nofree norecurse nosync nounwind memory(read, argmem: readwrite, inaccessiblemem: none) uwtable
define internal fastcc void @ZSTD_optLdm_processMatchCandidate(ptr noundef nonnull captures(none) %0, ptr noundef captures(none) %1, ptr noundef nonnull captures(none) %2, i32 noundef %3, i32 noundef %4) unnamed_addr #7 {
  %6 = getelementptr inbounds nuw i8, ptr %0, i64 24
  %7 = load i64, ptr %6, align 8
  %8 = icmp eq i64 %7, 0
  br i1 %8, label %ZSTD_optLdm_maybeAddMatch.exit, label %9

9:                                                ; preds = %5
  %10 = getelementptr inbounds nuw i8, ptr %0, i64 8
  %11 = load i64, ptr %10, align 8
  %.not = icmp ult i64 %11, %7
  br i1 %.not, label %12, label %ZSTD_optLdm_maybeAddMatch.exit

12:                                               ; preds = %9
  %13 = getelementptr inbounds nuw i8, ptr %0, i64 44
  %14 = load i32, ptr %13, align 4
  %.not19 = icmp ult i32 %3, %14
  br i1 %.not19, label %35, label %15

15:                                               ; preds = %12
  %16 = icmp ugt i32 %3, %14
  br i1 %16, label %17, label %ZSTD_optLdm_skipRawSeqStoreBytes.exit

17:                                               ; preds = %15
  %18 = sub nuw i32 %3, %14
  %19 = getelementptr inbounds nuw i8, ptr %0, i64 16
  %20 = load i64, ptr %19, align 8
  %21 = trunc i64 %20 to i32
  %22 = add i32 %18, %21
  %cond25.i = icmp eq i32 %22, 0
  br i1 %cond25.i, label %.loopexit.i, label %.lr.ph.i

.lr.ph.i:                                         ; preds = %17, %29
  %23 = phi i64 [ %31, %29 ], [ %11, %17 ]
  %.026.i = phi i32 [ %30, %29 ], [ %22, %17 ]
  %24 = icmp ult i64 %23, %7
  br i1 %24, label %25, label %.critedge.i

25:                                               ; preds = %.lr.ph.i
  %26 = load ptr, ptr %0, align 8
  %27 = getelementptr inbounds %struct.rawSeq, ptr %26, i64 %23
  %.sroa.1.0..sroa_idx.i = getelementptr inbounds nuw i8, ptr %27, i64 4
  %.sroa.1.0.copyload.i = load i32, ptr %.sroa.1.0..sroa_idx.i, align 4
  %.sroa.3.0..sroa_idx.i = getelementptr inbounds nuw i8, ptr %27, i64 8
  %.sroa.3.0.copyload.i = load i32, ptr %.sroa.3.0..sroa_idx.i, align 4
  %28 = add i32 %.sroa.3.0.copyload.i, %.sroa.1.0.copyload.i
  %.not19.i = icmp ult i32 %.026.i, %28
  br i1 %.not19.i, label %32, label %29

29:                                               ; preds = %25
  %30 = sub nuw i32 %.026.i, %28
  %31 = add nuw i64 %23, 1
  store i64 %31, ptr %10, align 8
  %cond.i = icmp eq i32 %30, 0
  br i1 %cond.i, label %.loopexit.i, label %.lr.ph.i, !llvm.loop !21

32:                                               ; preds = %25
  %33 = zext i32 %.026.i to i64
  store i64 %33, ptr %19, align 8
  br label %.critedge.i

.critedge.i:                                      ; preds = %.lr.ph.i, %32
  %34 = icmp eq i64 %23, %7
  br i1 %34, label %.loopexit.i, label %ZSTD_optLdm_skipRawSeqStoreBytes.exit

.loopexit.i:                                      ; preds = %29, %.critedge.i, %17
  store i64 0, ptr %19, align 8
  br label %ZSTD_optLdm_skipRawSeqStoreBytes.exit

ZSTD_optLdm_skipRawSeqStoreBytes.exit:            ; preds = %.loopexit.i, %.critedge.i, %15
  tail call fastcc void @ZSTD_opt_getNextMatchAndUpdateSeqStore(ptr noundef %0, i32 noundef %3, i32 noundef %4)
  %.pre = load i32, ptr %13, align 4
  br label %35

35:                                               ; preds = %ZSTD_optLdm_skipRawSeqStoreBytes.exit, %12
  %36 = phi i32 [ %.pre, %ZSTD_optLdm_skipRawSeqStoreBytes.exit ], [ %14, %12 ]
  %37 = getelementptr inbounds nuw i8, ptr %0, i64 40
  %38 = load i32, ptr %37, align 8
  %39 = sub i32 %36, %3
  %40 = icmp ult i32 %3, %38
  br i1 %40, label %ZSTD_optLdm_maybeAddMatch.exit, label %41

41:                                               ; preds = %35
  %42 = icmp uge i32 %3, %36
  %43 = icmp ult i32 %39, 3
  %or.cond.i = or i1 %42, %43
  br i1 %or.cond.i, label %ZSTD_optLdm_maybeAddMatch.exit, label %44

44:                                               ; preds = %41
  %45 = load i32, ptr %2, align 4
  %46 = icmp eq i32 %45, 0
  br i1 %46, label %54, label %47

47:                                               ; preds = %44
  %48 = add i32 %45, -1
  %49 = zext i32 %48 to i64
  %50 = getelementptr inbounds nuw %struct.ZSTD_match_t, ptr %1, i64 %49, i32 1
  %51 = load i32, ptr %50, align 4
  %52 = icmp ugt i32 %39, %51
  %53 = icmp ult i32 %45, 4096
  %or.cond25.i = and i1 %53, %52
  br i1 %or.cond25.i, label %54, label %ZSTD_optLdm_maybeAddMatch.exit

54:                                               ; preds = %47, %44
  %55 = getelementptr inbounds nuw i8, ptr %0, i64 48
  %56 = load i32, ptr %55, align 8
  %57 = add i32 %56, 3
  %58 = zext nneg i32 %45 to i64
  %59 = getelementptr inbounds nuw %struct.ZSTD_match_t, ptr %1, i64 %58, i32 1
  store i32 %39, ptr %59, align 4
  %60 = load i32, ptr %2, align 4
  %61 = zext i32 %60 to i64
  %62 = getelementptr inbounds nuw %struct.ZSTD_match_t, ptr %1, i64 %61
  store i32 %57, ptr %62, align 4
  %63 = load i32, ptr %2, align 4
  %64 = add i32 %63, 1
  store i32 %64, ptr %2, align 4
  br label %ZSTD_optLdm_maybeAddMatch.exit

ZSTD_optLdm_maybeAddMatch.exit:                   ; preds = %54, %47, %41, %35, %5, %9
  ret void
}